; Function Attrs: nounwind uwtable
define noalias noundef ptr @Saig_MvManFindOscilators(ptr noundef readonly captures(none) %0, ptr noundef writeonly captures(none) initializes((0, 8)) %1) local_unnamed_addr #0 {
  %3 = alloca ptr, align 8
  call void @llvm.lifetime.start.p0(i64 8, ptr nonnull %3) #22
  %4 = call ptr @Saig_MvManFindConstBinaryFlops(ptr noundef %0, ptr noundef nonnull %3)
  store ptr %4, ptr %1, align 8, !tbaa !73
  %5 = tail call noalias dereferenceable_or_null(16) ptr @malloc(i64 noundef 16) #19
  %6 = getelementptr inbounds nuw i8, ptr %5, i64 4
  store i32 0, ptr %6, align 4, !tbaa !84
  store i32 100, ptr %5, align 8, !tbaa !85
  %7 = tail call noalias dereferenceable_or_null(400) ptr @malloc(i64 noundef 400) #19
  %8 = getelementptr inbounds nuw i8, ptr %5, i64 8
  store ptr %7, ptr %8, align 8, !tbaa !74
  %9 = load ptr, ptr %3, align 8, !tbaa !73
  %10 = getelementptr i8, ptr %9, i64 4
  %.val10 = load i32, ptr %10, align 4, !tbaa !84
  %11 = icmp sgt i32 %.val10, 0
  br i1 %11, label %.lr.ph, label %.critedge

.lr.ph:                                           ; preds = %2
  %12 = getelementptr i8, ptr %9, i64 8
  br label %13

13:                                               ; preds = %.lr.ph, %40
  %14 = phi ptr [ %7, %.lr.ph ], [ %.pre.i14, %40 ]
  %indvars.iv = phi i64 [ 0, %.lr.ph ], [ %indvars.iv.next, %40 ]
  %.val9 = load ptr, ptr %12, align 8, !tbaa !74
  %15 = getelementptr inbounds nuw i32, ptr %.val9, i64 %indvars.iv
  %16 = load i32, ptr %15, align 4, !tbaa !78
  %17 = tail call i32 @Saig_MvManCheckOscilator(ptr noundef %0, i32 noundef %16)
  %.not = icmp eq i32 %17, 0
  br i1 %.not, label %40, label %18

18:                                               ; preds = %13
  %19 = load i32, ptr %6, align 4, !tbaa !84
  %20 = load i32, ptr %5, align 8, !tbaa !85
  %21 = icmp eq i32 %19, %20
  br i1 %21, label %22, label %Vec_IntPush.exit

22:                                               ; preds = %18
  %23 = icmp slt i32 %19, 16
  br i1 %23, label %24, label %29

24:                                               ; preds = %22
  %.not9.i.i = icmp eq ptr %14, null
  br i1 %.not9.i.i, label %27, label %25

25:                                               ; preds = %24
  %26 = tail call dereferenceable_or_null(64) ptr @realloc(ptr noundef nonnull %14, i64 noundef 64) #21
  br label %Vec_IntPush.exit.sink.split

27:                                               ; preds = %24
  %28 = tail call noalias dereferenceable_or_null(64) ptr @malloc(i64 noundef 64) #19
  br label %Vec_IntPush.exit.sink.split

29:                                               ; preds = %22
  %30 = shl nuw nsw i32 %19, 1
  %.not9.i9.i = icmp eq ptr %14, null
  %31 = zext nneg i32 %30 to i64
  %32 = shl nuw nsw i64 %31, 2
  br i1 %.not9.i9.i, label %35, label %33

33:                                               ; preds = %29
  %34 = tail call ptr @realloc(ptr noundef nonnull %14, i64 noundef %32) #21
  br label %Vec_IntPush.exit.sink.split

35:                                               ; preds = %29
  %36 = tail call noalias ptr @malloc(i64 noundef %32) #19
  br label %Vec_IntPush.exit.sink.split

Vec_IntPush.exit.sink.split:                      ; preds = %33, %35, %25, %27
  %.sink16 = phi ptr [ %26, %25 ], [ %28, %27 ], [ %34, %33 ], [ %36, %35 ]
  %.sink = phi i32 [ 16, %25 ], [ 16, %27 ], [ %30, %33 ], [ %30, %35 ]
  store ptr %.sink16, ptr %8, align 8, !tbaa !74
  store i32 %.sink, ptr %5, align 8, !tbaa !85
  br label %Vec_IntPush.exit

Vec_IntPush.exit:                                 ; preds = %Vec_IntPush.exit.sink.split, %18
  %.pre.i15 = phi ptr [ %14, %18 ], [ %.sink16, %Vec_IntPush.exit.sink.split ]
  %37 = add nsw i32 %19, 1
  store i32 %37, ptr %6, align 4, !tbaa !84
  %38 = sext i32 %19 to i64
  %39 = getelementptr inbounds i32, ptr %.pre.i15, i64 %38
  store i32 %16, ptr %39, align 4, !tbaa !78
  br label %40

40:                                               ; preds = %13, %Vec_IntPush.exit
  %.pre.i14 = phi ptr [ %14, %13 ], [ %.pre.i15, %Vec_IntPush.exit ]
  %indvars.iv.next = add nuw nsw i64 %indvars.iv, 1
  %.val = load i32, ptr %10, align 4, !tbaa !84
  %41 = sext i32 %.val to i64
  %42 = icmp slt i64 %indvars.iv.next, %41
  br i1 %42, label %13, label %.critedge, !llvm.loop !102

.critedge:                                        ; preds = %40, %2
  %43 = getelementptr inbounds nuw i8, ptr %9, i64 8
  %44 = load ptr, ptr %43, align 8, !tbaa !74
  %.not.i = icmp eq ptr %44, null
  br i1 %.not.i, label %Vec_IntFree.exit, label %45

45:                                               ; preds = %.critedge
  tail call void @free(ptr noundef nonnull %44) #22
  br label %Vec_IntFree.exit

Vec_IntFree.exit:                                 ; preds = %.critedge, %45
  tail call void @free(ptr noundef nonnull %9) #22
  call void @llvm.lifetime.end.p0(i64 8, ptr nonnull %3) #22
  ret ptr %5
}